Certificate:
    Data:
        Version: 3 (0x2)
        Serial Number: 1 (0x1)
        Signature Algorithm: sha256WithRSAEncryption
        Issuer: C=ZA, ST=Gauteng, L=Pretoria, O=Pyrodatics Inc, OU=Data Dragons, CN=Pyrodatics/emailAddress=efraser25@gmail.com
        Validity
            Not Before: Jun 13 05:29:17 2022 GMT
            Not After : Mar  9 05:29:17 2025 GMT
        Subject: C=ZA, ST=Gauteng, L=Pretoria, O=Pyrodatics Inc, CN=Pyrodatics
        Subject Public Key Info:
            Public Key Algorithm: rsaEncryption
                RSA Public-Key: (2048 bit)
                Modulus:
                    00:df:5c:6d:1e:13:52:7c:22:a5:79:4f:1b:97:73:
                    78:4e:a7:03:57:93:61:77:bc:86:82:58:0b:42:39:
                    3f:ed:0c:0f:29:ce:74:39:0b:ec:0a:92:5d:97:b6:
                    7f:ab:3f:70:04:e3:fd:27:43:51:8d:38:98:52:4f:
                    d4:c3:38:2a:04:95:29:ef:6b:68:bd:95:ff:42:b5:
                    a9:34:55:b2:9d:e0:69:f0:a2:d7:ee:fb:49:77:5e:
                    f4:ce:74:96:a4:87:c8:af:b0:fe:8c:69:6b:ff:f1:
                    d7:13:69:0d:cf:7c:37:4a:03:03:2f:7c:a7:c5:72:
                    01:93:d8:bd:20:4c:dc:9c:8a:09:69:30:c5:f5:97:
                    34:7c:43:52:52:5b:2c:b8:aa:a0:47:f7:4b:3a:35:
                    a3:e6:20:41:c9:d9:4a:7a:ae:00:3a:70:43:e9:73:
                    f0:30:b4:a0:53:29:5a:7a:66:57:cc:37:cf:ea:1a:
                    c5:e3:2f:8c:d6:ba:a9:4d:3d:1e:65:4a:53:71:12:
                    26:12:53:a6:39:69:e2:c9:e8:6f:2c:f6:26:2a:a8:
                    cc:1b:43:07:02:33:8d:34:ea:c7:7b:63:cb:46:12:
                    90:03:8c:93:12:66:1a:3e:6f:07:00:47:50:d5:00:
                    0a:4c:36:52:45:77:99:39:13:c3:be:16:62:e3:b6:
                    05:9b
                Exponent: 65537 (0x10001)
        X509v3 extensions:
            X509v3 Subject Key Identifier: 
                F2:D3:72:5F:B0:C1:25:A9:25:5C:41:E4:94:E4:D3:AE:04:F4:50:24
            X509v3 Authority Key Identifier: 
                keyid:B8:D1:6F:17:A2:12:72:21:1F:00:E8:BC:FC:F1:91:8C:E4:91:72:86

            X509v3 Basic Constraints: 
                CA:FALSE
            X509v3 Key Usage: 
                Digital Signature, Key Encipherment
            X509v3 Extended Key Usage: critical
                TLS Web Server Authentication, TLS Web Client Authentication
            X509v3 Subject Alternative Name: 
                DNS:*.docker.internal, DNS:docker.internal, DNS:localhost, DNS:jackett.docker.internal, DNS:portainer.docker.internal, DNS:delaporte, IP Address:127.0.0.1, IP Address:192.168.68.120, IP Address:0:0:0:0:0:0:0:1
            Netscape Comment: 
                OpenSSL Generated Server Certificate
    Signature Algorithm: sha256WithRSAEncryption
         a0:dc:c5:e6:08:02:27:88:47:87:2f:c3:97:55:d6:fc:4f:fb:
         70:6b:9c:05:57:94:eb:e5:41:8b:60:47:72:5f:e8:47:ee:91:
         ac:1b:5a:50:65:0e:c6:e7:96:8b:05:77:94:f3:a7:6d:ba:2a:
         28:8f:9c:bc:18:1a:fc:89:2e:d8:9b:aa:e1:24:5e:c9:c2:58:
         fb:d8:7f:53:c9:3c:d8:82:88:2a:a9:b9:22:d2:c8:3d:76:91:
         ff:0b:4f:bd:ee:e5:fd:e8:54:92:1b:a5:fc:31:0d:cc:4b:b6:
         f7:54:a1:d5:c4:c0:71:77:b2:26:1c:a4:46:87:3b:ee:9f:61:
         8c:40:16:89:27:bc:f9:18:ed:0c:30:d3:6a:5c:ac:23:17:65:
         03:ab:5a:48:8e:20:39:ba:b2:ee:27:6c:3b:cd:f9:e6:08:e0:
         62:76:18:fb:00:d0:1d:82:bd:18:76:b8:55:b9:45:60:80:1a:
         eb:7f:40:30:17:16:dd:b0:5c:94:2e:48:1a:93:97:92:0e:af:
         d0:0e:28:2a:97:75:1b:54:3e:ce:53:a9:dc:27:4e:af:6a:bb:
         80:0d:ee:e5:69:97:17:2b:d9:02:62:e4:d2:30:13:d4:ac:59:
         69:8b:1e:87:1e:69:d5:2a:39:ec:21:65:56:4e:f8:f5:fa:0b:
         e2:e0:4e:14:8f:ae:3b:26:2d:fa:f3:4f:26:e7:33:61:c0:f6:
         6e:98:76:6f:f5:18:1c:7d:dd:fe:0e:10:53:41:ff:2a:38:04:
         f7:4d:e9:f3:30:25:9b:06:fb:7c:f9:ef:c4:2b:f9:89:e5:45:
         f1:dc:56:5b:56:aa:c8:cd:3a:08:7e:f0:df:43:08:1b:52:87:
         95:71:63:58:f2:71:be:9b:bb:54:bd:35:a5:c6:92:29:78:1f:
         48:95:b9:51:95:12:dc:d0:30:ee:5f:69:36:da:51:16:ce:0e:
         31:93:67:13:8a:00:a6:63:18:a1:31:e7:0a:e9:08:f0:ed:d0:
         4c:c1:dd:b2:e0:cc:96:11:88:27:24:b4:ea:4b:3c:19:45:44:
         a2:29:21:f9:54:e9:46:5b:04:a8:f2:9b:08:14:74:f4:bc:23:
         4c:1d:e0:29:82:9c:dc:f2:2c:4f:fc:c9:85:93:39:1b:2a:40:
         32:1b:ef:c5:08:36:0b:67:19:ce:02:18:c7:d7:ff:12:60:1d:
         a8:1f:63:1c:a0:59:8e:b2:b6:3b:c0:7f:2b:84:84:29:89:6c:
         20:3b:21:2f:93:15:3f:d1:0b:d3:ff:e1:97:f3:0a:0c:99:d0:
         65:2d:8f:c3:6e:eb:f8:8f:6f:6f:75:e6:c8:56:ae:a3:69:b3:
         21:a3:f3:f8:f7:84:36:86
-----BEGIN CERTIFICATE-----
MIIFxjCCA66gAwIBAgIBATANBgkqhkiG9w0BAQsFADCBmzELMAkGA1UEBhMCWkEx
EDAOBgNVBAgMB0dhdXRlbmcxETAPBgNVBAcMCFByZXRvcmlhMRcwFQYDVQQKDA5Q
eXJvZGF0aWNzIEluYzEVMBMGA1UECwwMRGF0YSBEcmFnb25zMRMwEQYDVQQDDApQ
eXJvZGF0aWNzMSIwIAYJKoZIhvcNAQkBFhNlZnJhc2VyMjVAZ21haWwuY29tMB4X
DTIyMDYxMzA1MjkxN1oXDTI1MDMwOTA1MjkxN1owYDELMAkGA1UEBhMCWkExEDAO
BgNVBAgMB0dhdXRlbmcxETAPBgNVBAcMCFByZXRvcmlhMRcwFQYDVQQKDA5QeXJv
ZGF0aWNzIEluYzETMBEGA1UEAwwKUHlyb2RhdGljczCCASIwDQYJKoZIhvcNAQEB
BQADggEPADCCAQoCggEBAN9cbR4TUnwipXlPG5dzeE6nA1eTYXe8hoJYC0I5P+0M
DynOdDkL7AqSXZe2f6s/cATj/SdDUY04mFJP1MM4KgSVKe9raL2V/0K1qTRVsp3g
afCi1+77SXde9M50lqSHyK+w/oxpa//x1xNpDc98N0oDAy98p8VyAZPYvSBM3JyK
CWkwxfWXNHxDUlJbLLiqoEf3Szo1o+YgQcnZSnquADpwQ+lz8DC0oFMpWnpmV8w3
z+oaxeMvjNa6qU09HmVKU3ESJhJTpjlp4snobyz2JiqozBtDBwIzjTTqx3tjy0YS
kAOMkxJmGj5vBwBHUNUACkw2UkV3mTkTw74WYuO2BZsCAwEAAaOCAU0wggFJMB0G
A1UdDgQWBBTy03JfsMElqSVcQeSU5NOuBPRQJDAfBgNVHSMEGDAWgBS40W8XohJy
IR8A6Lz88ZGM5JFyhjAJBgNVHRMEAjAAMAsGA1UdDwQEAwIFoDAgBgNVHSUBAf8E
FjAUBggrBgEFBQcDAQYIKwYBBQUHAwIwgZcGA1UdEQSBjzCBjIIRKi5kb2NrZXIu
aW50ZXJuYWyCD2RvY2tlci5pbnRlcm5hbIIJbG9jYWxob3N0ghdqYWNrZXR0LmRv
Y2tlci5pbnRlcm5hbIIZcG9ydGFpbmVyLmRvY2tlci5pbnRlcm5hbIIJZGVsYXBv
cnRlhwR/AAABhwTAqER4hxAAAAAAAAAAAAAAAAAAAAABMDMGCWCGSAGG+EIBDQQm
FiRPcGVuU1NMIEdlbmVyYXRlZCBTZXJ2ZXIgQ2VydGlmaWNhdGUwDQYJKoZIhvcN
AQELBQADggIBAKDcxeYIAieIR4cvw5dV1vxP+3BrnAVXlOvlQYtgR3Jf6Efukawb
WlBlDsbnlosFd5Tzp226KiiPnLwYGvyJLtibquEkXsnCWPvYf1PJPNiCiCqpuSLS
yD12kf8LT73u5f3oVJIbpfwxDcxLtvdUodXEwHF3siYcpEaHO+6fYYxAFoknvPkY
7Qww02pcrCMXZQOrWkiOIDm6su4nbDvN+eYI4GJ2GPsA0B2CvRh2uFW5RWCAGut/
QDAXFt2wXJQuSBqTl5IOr9AOKCqXdRtUPs5TqdwnTq9qu4AN7uVplxcr2QJi5NIw
E9SsWWmLHoceadUqOewhZVZO+PX6C+LgThSPrjsmLfrzTybnM2HA9m6Ydm/1GBx9
3f4OEFNB/yo4BPdN6fMwJZsG+3z578Qr+YnlRfHcVltWqsjNOgh+8N9DCBtSh5Vx
Y1jycb6bu1S9NaXGkil4H0iVuVGVEtzQMO5faTbaURbODjGTZxOKAKZjGKEx5wrp
CPDt0EzB3bLgzJYRiCcktOpLPBlFRKIpIflU6UZbBKjymwgUdPS8I0wd4CmCnNzy
LE/8yYWTORsqQDIb78UINgtnGc4CGMfX/xJgHagfYxygWY6ytjvAfyuEhCmJbCA7
IS+TFT/RC9P/4ZfzCgyZ0GUtj8Nu6/iPb2915shWrqNpsyGj8/j3hDaG
-----END CERTIFICATE-----
